target datalayout = "e-m:e-p270:32:32-p271:32:32-p272:64:64-i64:64-i128:128-f80:128-n8:16:32:64-S128"
target triple = "x86_64-pc-linux-gnu"

%struct.FFHWBaseEncodePicture = type { ptr, ptr, ptr, i64, i64, i64, i64, i32, ptr, ptr, i32, i32, i32, i32, ptr, ptr, i32, i32, [16 x ptr], [2 x i32], [2 x [2 x ptr]], ptr, [2 x i32], [2 x i32] }
%struct.AVPacket = type { ptr, i64, i64, ptr, i32, i32, i32, ptr, i32, i64, i64, ptr, ptr, %struct.AVRational }
%struct.AVRational = type { i32, i32 }
%struct.AVCodecContext = type { ptr, i32, i32, ptr, i32, i32, ptr, ptr, ptr, i64, i32, i32, ptr, i32, %struct.AVRational, %struct.AVRational, %struct.AVRational, i32, i32, i32, i32, i32, %struct.AVRational, i32, i32, i32, i32, i32, i32, i32, i32, i32, i32, i32, ptr, ptr, i32, float, float, float, float, float, float, float, float, float, i32, i32, i32, i32, i32, i32, i32, i32, i32, i32, i32, i32, ptr, ptr, ptr, i32, i32, i32, i32, i32, i32, i32, i32, i32, i32, %struct.AVChannelLayout, i32, i32, i32, i32, i32, i32, i32, i32, ptr, i32, i32, i32, float, float, i32, i32, i32, i32, i32, ptr, i64, i64, float, float, i32, i32, ptr, ptr, i32, i32, i32, i32, i32, ptr, ptr, ptr, ptr, i32, i32, [8 x i64], i32, i32, i32, i32, i32, i32, i32, ptr, ptr, i32, i32, i32, i32, i32, i32, i32, i32, i32, i32, ptr, ptr, i32, i32, ptr, ptr, ptr, ptr, i32, i32, i64, i32, i32, i64, ptr, i64, ptr, i32, ptr, i32 }
%struct.AVChannelLayout = type { i32, i32, %union.anon, ptr }
%union.anon = type { i64 }
%struct.AVCodec = type { ptr, ptr, i32, i32, i32, i8, ptr, ptr, ptr, ptr, ptr, ptr, ptr, ptr }
%struct.FFHWBaseEncodeContext = type { ptr, ptr, ptr, i32, i32, i32, i32, i32, i32, ptr, ptr, ptr, ptr, ptr, ptr, ptr, ptr, [2 x ptr], i32, i64, i64, i64, i64, i64, i64, i64, [112 x i64], i32, i32, i32, i32, i32, i32, i32, i32, i32, i32, i32, i32, i32, i32, i32, i32, ptr, i32, ptr, i32, ptr }

; Function Attrs: nounwind uwtable
define i32 @ff_hw_base_encode_set_output_property(ptr noundef %0, ptr noundef %1, ptr noundef %2, ptr noundef %3, i32 noundef %4) #0 {
  %6 = alloca i32, align 4
  %7 = alloca ptr, align 8
  %8 = alloca ptr, align 8
  %9 = alloca ptr, align 8
  %10 = alloca ptr, align 8
  %11 = alloca i32, align 4
  store ptr %0, ptr %7, align 8, !tbaa !4
  store ptr %1, ptr %8, align 8, !tbaa !9
  store ptr %2, ptr %9, align 8, !tbaa !11
  store ptr %3, ptr %10, align 8, !tbaa !13
  store i32 %4, ptr %11, align 4, !tbaa !15
  %12 = load ptr, ptr %9, align 8, !tbaa !11
  %13 = getelementptr inbounds nuw %struct.FFHWBaseEncodePicture, ptr %12, i32 0, i32 10
  %14 = load i32, ptr %13, align 8, !tbaa !17
  %15 = icmp eq i32 %14, 0
  br i1 %15, label %16, label %21

16:                                               ; preds = %5
  %17 = load ptr, ptr %10, align 8, !tbaa !13
  %18 = getelementptr inbounds nuw %struct.AVPacket, ptr %17, i32 0, i32 6
  %19 = load i32, ptr %18, align 8, !tbaa !22
  %20 = or i32 %19, 1
  store i32 %20, ptr %18, align 8, !tbaa !22
  br label %21

21:                                               ; preds = %16, %5
  %22 = load ptr, ptr %9, align 8, !tbaa !11
  %23 = getelementptr inbounds nuw %struct.FFHWBaseEncodePicture, ptr %22, i32 0, i32 5
  %24 = load i64, ptr %23, align 8, !tbaa !27
  %25 = load ptr, ptr %10, align 8, !tbaa !13
  %26 = getelementptr inbounds nuw %struct.AVPacket, ptr %25, i32 0, i32 1
  store i64 %24, ptr %26, align 8, !tbaa !28
  %27 = load ptr, ptr %9, align 8, !tbaa !11
  %28 = getelementptr inbounds nuw %struct.FFHWBaseEncodePicture, ptr %27, i32 0, i32 6
  %29 = load i64, ptr %28, align 8, !tbaa !29
  %30 = load ptr, ptr %10, align 8, !tbaa !13
  %31 = getelementptr inbounds nuw %struct.AVPacket, ptr %30, i32 0, i32 9
  store i64 %29, ptr %31, align 8, !tbaa !30
  %32 = load ptr, ptr %8, align 8, !tbaa !9
  %33 = getelementptr inbounds nuw %struct.AVCodecContext, ptr %32, i32 0, i32 3
  %34 = load ptr, ptr %33, align 8, !tbaa !31
  %35 = getelementptr inbounds nuw %struct.AVCodec, ptr %34, i32 0, i32 4
  %36 = load i32, ptr %35, align 8, !tbaa !45
  %37 = and i32 %36, 32
  %38 = icmp ne i32 %37, 0
  br i1 %38, label %39, label %58

39:                                               ; preds = %21
  %40 = load ptr, ptr %8, align 8, !tbaa !9
  %41 = getelementptr inbounds nuw %struct.AVCodecContext, ptr %40, i32 0, i32 10
  %42 = load i32, ptr %41, align 8, !tbaa !50
  %43 = and i32 %42, 128
  %44 = icmp ne i32 %43, 0
  br i1 %44, label %45, label %58

45:                                               ; preds = %39
  %46 = load ptr, ptr %9, align 8, !tbaa !11
  %47 = getelementptr inbounds nuw %struct.FFHWBaseEncodePicture, ptr %46, i32 0, i32 8
  %48 = load ptr, ptr %47, align 8, !tbaa !51
  %49 = load ptr, ptr %10, align 8, !tbaa !13
  %50 = getelementptr inbounds nuw %struct.AVPacket, ptr %49, i32 0, i32 11
  store ptr %48, ptr %50, align 8, !tbaa !52
  %51 = load ptr, ptr %9, align 8, !tbaa !11
  %52 = getelementptr inbounds nuw %struct.FFHWBaseEncodePicture, ptr %51, i32 0, i32 9
  %53 = load ptr, ptr %52, align 8, !tbaa !53
  %54 = load ptr, ptr %10, align 8, !tbaa !13
  %55 = getelementptr inbounds nuw %struct.AVPacket, ptr %54, i32 0, i32 12
  store ptr %53, ptr %55, align 8, !tbaa !54
  %56 = load ptr, ptr %9, align 8, !tbaa !11
  %57 = getelementptr inbounds nuw %struct.FFHWBaseEncodePicture, ptr %56, i32 0, i32 9
  store ptr null, ptr %57, align 8, !tbaa !53
  br label %58

58:                                               ; preds = %45, %39, %21
  %59 = load i32, ptr %11, align 4, !tbaa !15
  %60 = icmp ne i32 %59, 0
  br i1 %60, label %61, label %67

61:                                               ; preds = %58
  %62 = load ptr, ptr %10, align 8, !tbaa !13
  %63 = getelementptr inbounds nuw %struct.AVPacket, ptr %62, i32 0, i32 1
  %64 = load i64, ptr %63, align 8, !tbaa !28
  %65 = load ptr, ptr %10, align 8, !tbaa !13
  %66 = getelementptr inbounds nuw %struct.AVPacket, ptr %65, i32 0, i32 2
  store i64 %64, ptr %66, align 8, !tbaa !55
  store i32 0, ptr %6, align 4
  br label %143

67:                                               ; preds = %58
  %68 = load ptr, ptr %7, align 8, !tbaa !4
  %69 = getelementptr inbounds nuw %struct.FFHWBaseEncodeContext, ptr %68, i32 0, i32 20
  %70 = load i64, ptr %69, align 8, !tbaa !56
  %71 = icmp eq i64 %70, 0
  br i1 %71, label %72, label %78

72:                                               ; preds = %67
  %73 = load ptr, ptr %10, align 8, !tbaa !13
  %74 = getelementptr inbounds nuw %struct.AVPacket, ptr %73, i32 0, i32 1
  %75 = load i64, ptr %74, align 8, !tbaa !28
  %76 = load ptr, ptr %10, align 8, !tbaa !13
  %77 = getelementptr inbounds nuw %struct.AVPacket, ptr %76, i32 0, i32 2
  store i64 %75, ptr %77, align 8, !tbaa !55
  br label %142

78:                                               ; preds = %67
  %79 = load ptr, ptr %9, align 8, !tbaa !11
  %80 = getelementptr inbounds nuw %struct.FFHWBaseEncodePicture, ptr %79, i32 0, i32 4
  %81 = load i64, ptr %80, align 8, !tbaa !62
  %82 = load ptr, ptr %7, align 8, !tbaa !4
  %83 = getelementptr inbounds nuw %struct.FFHWBaseEncodeContext, ptr %82, i32 0, i32 22
  %84 = load i64, ptr %83, align 8, !tbaa !63
  %85 = icmp slt i64 %81, %84
  br i1 %85, label %86, label %117

86:                                               ; preds = %78
  %87 = load ptr, ptr %7, align 8, !tbaa !4
  %88 = getelementptr inbounds nuw %struct.FFHWBaseEncodeContext, ptr %87, i32 0, i32 26
  %89 = load ptr, ptr %9, align 8, !tbaa !11
  %90 = getelementptr inbounds nuw %struct.FFHWBaseEncodePicture, ptr %89, i32 0, i32 4
  %91 = load i64, ptr %90, align 8, !tbaa !62
  %92 = getelementptr inbounds [112 x i64], ptr %88, i64 0, i64 %91
  %93 = load i64, ptr %92, align 8, !tbaa !64
  %94 = load ptr, ptr %7, align 8, !tbaa !4
  %95 = getelementptr inbounds nuw %struct.FFHWBaseEncodeContext, ptr %94, i32 0, i32 25
  %96 = load i64, ptr %95, align 8, !tbaa !65
  %97 = add nsw i64 -9223372036854775808, %96
  %98 = icmp slt i64 %93, %97
  br i1 %98, label %99, label %102

99:                                               ; preds = %86
  %100 = load ptr, ptr %10, align 8, !tbaa !13
  %101 = getelementptr inbounds nuw %struct.AVPacket, ptr %100, i32 0, i32 2
  store i64 -9223372036854775808, ptr %101, align 8, !tbaa !55
  br label %116

102:                                              ; preds = %86
  %103 = load ptr, ptr %7, align 8, !tbaa !4
  %104 = getelementptr inbounds nuw %struct.FFHWBaseEncodeContext, ptr %103, i32 0, i32 26
  %105 = load ptr, ptr %9, align 8, !tbaa !11
  %106 = getelementptr inbounds nuw %struct.FFHWBaseEncodePicture, ptr %105, i32 0, i32 4
  %107 = load i64, ptr %106, align 8, !tbaa !62
  %108 = getelementptr inbounds [112 x i64], ptr %104, i64 0, i64 %107
  %109 = load i64, ptr %108, align 8, !tbaa !64
  %110 = load ptr, ptr %7, align 8, !tbaa !4
  %111 = getelementptr inbounds nuw %struct.FFHWBaseEncodeContext, ptr %110, i32 0, i32 25
  %112 = load i64, ptr %111, align 8, !tbaa !65
  %113 = sub nsw i64 %109, %112
  %114 = load ptr, ptr %10, align 8, !tbaa !13
  %115 = getelementptr inbounds nuw %struct.AVPacket, ptr %114, i32 0, i32 2
  store i64 %113, ptr %115, align 8, !tbaa !55
  br label %116

116:                                              ; preds = %102, %99
  br label %141

117:                                              ; preds = %78
  %118 = load ptr, ptr %7, align 8, !tbaa !4
  %119 = getelementptr inbounds nuw %struct.FFHWBaseEncodeContext, ptr %118, i32 0, i32 26
  %120 = load ptr, ptr %9, align 8, !tbaa !11
  %121 = getelementptr inbounds nuw %struct.FFHWBaseEncodePicture, ptr %120, i32 0, i32 4
  %122 = load i64, ptr %121, align 8, !tbaa !62
  %123 = load ptr, ptr %7, align 8, !tbaa !4
  %124 = getelementptr inbounds nuw %struct.FFHWBaseEncodeContext, ptr %123, i32 0, i32 22
  %125 = load i64, ptr %124, align 8, !tbaa !63
  %126 = sub nsw i64 %122, %125
  %127 = load ptr, ptr %7, align 8, !tbaa !4
  %128 = getelementptr inbounds nuw %struct.FFHWBaseEncodeContext, ptr %127, i32 0, i32 20
  %129 = load i64, ptr %128, align 8, !tbaa !56
  %130 = mul nsw i64 3, %129
  %131 = load ptr, ptr %7, align 8, !tbaa !4
  %132 = getelementptr inbounds nuw %struct.FFHWBaseEncodeContext, ptr %131, i32 0, i32 46
  %133 = load i32, ptr %132, align 8, !tbaa !66
  %134 = sext i32 %133 to i64
  %135 = add nsw i64 %130, %134
  %136 = srem i64 %126, %135
  %137 = getelementptr inbounds [112 x i64], ptr %119, i64 0, i64 %136
  %138 = load i64, ptr %137, align 8, !tbaa !64
  %139 = load ptr, ptr %10, align 8, !tbaa !13
  %140 = getelementptr inbounds nuw %struct.AVPacket, ptr %139, i32 0, i32 2
  store i64 %138, ptr %140, align 8, !tbaa !55
  br label %141

141:                                              ; preds = %117, %116
  br label %142

142:                                              ; preds = %141, %72
  store i32 0, ptr %6, align 4
  br label %143

143:                                              ; preds = %142, %61
  %144 = load i32, ptr %6, align 4
  ret i32 %144
}