; Function Attrs: mustprogress nofree norecurse nosync nounwind willreturn memory(read, argmem: readwrite, inaccessiblemem: none) uwtable
define noundef i32 @ff_hw_base_encode_set_output_property(ptr noundef readonly captures(none) %0, ptr noundef readonly captures(none) %1, ptr noundef captures(none) %2, ptr noundef captures(none) initializes((8, 24), (64, 72)) %3, i32 noundef %4) local_unnamed_addr #0 {
  %6 = getelementptr inbounds nuw i8, ptr %2, i64 80
  %7 = load i32, ptr %6, align 8, !tbaa !4
  %8 = icmp eq i32 %7, 0
  br i1 %8, label %9, label %13

9:                                                ; preds = %5
  %10 = getelementptr inbounds nuw i8, ptr %3, i64 40
  %11 = load i32, ptr %10, align 8, !tbaa !14
  %12 = or i32 %11, 1
  store i32 %12, ptr %10, align 8, !tbaa !14
  br label %13

13:                                               ; preds = %9, %5
  %14 = getelementptr inbounds nuw i8, ptr %2, i64 40
  %15 = load i64, ptr %14, align 8, !tbaa !19
  %16 = getelementptr inbounds nuw i8, ptr %3, i64 8
  store i64 %15, ptr %16, align 8, !tbaa !20
  %17 = getelementptr inbounds nuw i8, ptr %2, i64 48
  %18 = load i64, ptr %17, align 8, !tbaa !21
  %19 = getelementptr inbounds nuw i8, ptr %3, i64 64
  store i64 %18, ptr %19, align 8, !tbaa !22
  %20 = getelementptr inbounds nuw i8, ptr %1, i64 16
  %21 = load ptr, ptr %20, align 8, !tbaa !23
  %22 = getelementptr inbounds nuw i8, ptr %21, i64 24
  %23 = load i32, ptr %22, align 8, !tbaa !37
  %24 = and i32 %23, 32
  %.not = icmp eq i32 %24, 0
  br i1 %.not, label %36, label %25

25:                                               ; preds = %13
  %26 = getelementptr inbounds nuw i8, ptr %1, i64 64
  %27 = load i32, ptr %26, align 8, !tbaa !42
  %28 = and i32 %27, 128
  %.not38 = icmp eq i32 %28, 0
  br i1 %.not38, label %36, label %29

29:                                               ; preds = %25
  %30 = getelementptr inbounds nuw i8, ptr %2, i64 64
  %31 = load ptr, ptr %30, align 8, !tbaa !43
  %32 = getelementptr inbounds nuw i8, ptr %3, i64 80
  store ptr %31, ptr %32, align 8, !tbaa !44
  %33 = getelementptr inbounds nuw i8, ptr %2, i64 72
  %34 = load ptr, ptr %33, align 8, !tbaa !45
  %35 = getelementptr inbounds nuw i8, ptr %3, i64 88
  store ptr %34, ptr %35, align 8, !tbaa !46
  store ptr null, ptr %33, align 8, !tbaa !45
  br label %36

36:                                               ; preds = %29, %25, %13
  %.not39 = icmp eq i32 %4, 0
  br i1 %.not39, label %37, label %66

37:                                               ; preds = %36
  %38 = getelementptr inbounds nuw i8, ptr %0, i64 144
  %39 = load i64, ptr %38, align 8, !tbaa !47
  %40 = icmp eq i64 %39, 0
  br i1 %40, label %66, label %41

41:                                               ; preds = %37
  %42 = getelementptr inbounds nuw i8, ptr %2, i64 32
  %43 = load i64, ptr %42, align 8, !tbaa !54
  %44 = getelementptr inbounds nuw i8, ptr %0, i64 160
  %45 = load i64, ptr %44, align 8, !tbaa !55
  %46 = icmp slt i64 %43, %45
  %47 = getelementptr inbounds nuw i8, ptr %0, i64 192
  br i1 %46, label %48, label %56

48:                                               ; preds = %41
  %49 = getelementptr inbounds [112 x i64], ptr %47, i64 0, i64 %43
  %50 = load i64, ptr %49, align 8, !tbaa !56
  %51 = getelementptr inbounds nuw i8, ptr %0, i64 184
  %52 = load i64, ptr %51, align 8, !tbaa !57
  %53 = or i64 %52, -9223372036854775808
  %54 = icmp slt i64 %50, %53
  %55 = sub nsw i64 %50, %52
  %spec.select = select i1 %54, i64 -9223372036854775808, i64 %55
  br label %66

56:                                               ; preds = %41
  %57 = sub nsw i64 %43, %45
  %58 = mul nsw i64 %39, 3
  %59 = getelementptr inbounds nuw i8, ptr %0, i64 1176
  %60 = load i32, ptr %59, align 8, !tbaa !58
  %61 = sext i32 %60 to i64
  %62 = add nsw i64 %58, %61
  %63 = srem i64 %57, %62
  %64 = getelementptr inbounds [112 x i64], ptr %47, i64 0, i64 %63
  %65 = load i64, ptr %64, align 8, !tbaa !56
  br label %66

66:                                               ; preds = %48, %37, %36, %56
  %.sink = phi i64 [ %65, %56 ], [ %15, %36 ], [ %15, %37 ], [ %spec.select, %48 ]
  %67 = getelementptr inbounds nuw i8, ptr %3, i64 16
  store i64 %.sink, ptr %67, align 8, !tbaa !59
  ret i32 0
}